target datalayout = "e-m:e-p270:32:32-p271:32:32-p272:64:64-i64:64-i128:128-f80:128-n8:16:32:64-S128"
target triple = "x86_64-pc-linux-gnu"

%struct.ARKodeMemRec = type { ptr, double, ptr, i32, i32, double, double, ptr, i32, double, ptr, i32, i32, ptr, ptr, i32, ptr, ptr, i32, ptr, ptr, ptr, ptr, ptr, ptr, ptr, ptr, ptr, ptr, ptr, ptr, ptr, ptr, ptr, i32, ptr, ptr, i32, ptr, i32, ptr, ptr, ptr, ptr, ptr, ptr, ptr, ptr, ptr, ptr, ptr, ptr, ptr, ptr, ptr, ptr, ptr, ptr, ptr, ptr, ptr, ptr, ptr, ptr, ptr, ptr, i32, ptr, ptr, ptr, ptr, ptr, ptr, ptr, i32, ptr, ptr, ptr, i32, ptr, ptr, ptr, ptr, ptr, ptr, ptr, i32, i32, i32, i32, double, double, double, double, double, double, double, double, double, double, i32, ptr, i64, i32, i32, i32, i32, i64, i64, i32, i64, i64, i64, i64, i64, i64, i64, double, double, double, double, double, i32, double, double, i32, i32, i32, i32, i32, i32, i32, i32, ptr, i32, ptr, ptr, ptr, ptr, i32, i32, i32 }
%struct.ARKodeARKStepMemRec = type { ptr, ptr, i32, i32, i32, i32, i32, i32, ptr, ptr, ptr, ptr, ptr, ptr, i32, i32, i32, i32, ptr, ptr, ptr, ptr, i32, ptr, double, double, double, double, i32, double, double, double, double, double, double, i32, i64, i32, i32, i32, ptr, ptr, ptr, ptr, ptr, ptr, i32, ptr, ptr, ptr, ptr, ptr, ptr, i32, i32, i64, i64, i64, i64, i64, ptr, ptr, i32, i32, i32, double, double, ptr, i32, ptr, ptr }

@.str = private unnamed_addr constant [123 x i8] c"generated/home/dtcxzyw/WorkSpace/Projects/compilers/llvm-opt-benchmark/bench/sundials/sundials/src/arkode/arkode_arkstep.c\00", align 1
@__func__.arkStep_AttachMasssol = private unnamed_addr constant [22 x i8] c"arkStep_AttachMasssol\00", align 1
@.str.57 = private unnamed_addr constant [33 x i8] c"Time step module memory is NULL.\00", align 1

; Function Attrs: nounwind uwtable
define i32 @arkStep_AccessStepMem(ptr noundef %0, ptr noundef %1, ptr noundef %2) #0 {
  %4 = alloca i32, align 4
  %5 = alloca ptr, align 8
  %6 = alloca ptr, align 8
  %7 = alloca ptr, align 8
  store ptr %0, ptr %5, align 8, !tbaa !15
  store ptr %1, ptr %6, align 8, !tbaa !217
  store ptr %2, ptr %7, align 8, !tbaa !221
  %8 = load ptr, ptr %5, align 8, !tbaa !15
  %9 = getelementptr inbounds nuw %struct.ARKodeMemRec, ptr %8, i32 0, i32 19
  %10 = load ptr, ptr %9, align 8, !tbaa !74
  %11 = icmp eq ptr %10, null
  br i1 %11, label %12, label %15

12:                                               ; preds = %3
  %13 = load ptr, ptr %5, align 8, !tbaa !15
  %14 = load ptr, ptr %6, align 8, !tbaa !217
  call void (ptr, i32, i32, ptr, ptr, ptr, ...) @arkProcessError(ptr noundef %13, i32 noundef -21, i32 noundef 2165, ptr noundef %14, ptr noundef @.str, ptr noundef @.str.57)
  store i32 -21, ptr %4, align 4
  br label %20

15:                                               ; preds = %3
  %16 = load ptr, ptr %5, align 8, !tbaa !15
  %17 = getelementptr inbounds nuw %struct.ARKodeMemRec, ptr %16, i32 0, i32 19
  %18 = load ptr, ptr %17, align 8, !tbaa !74
  %19 = load ptr, ptr %7, align 8, !tbaa !221
  store ptr %18, ptr %19, align 8, !tbaa !17
  store i32 0, ptr %4, align 4
  br label %20

20:                                               ; preds = %15, %12
  %21 = load i32, ptr %4, align 4
  ret i32 %21
}

; Function Attrs: nounwind uwtable
define i32 @arkStep_AttachMasssol(ptr noundef %0, ptr noundef %1, ptr noundef %2, ptr noundef %3, ptr noundef %4, ptr noundef %5, i32 noundef %6, i32 noundef %7, ptr noundef %8) #0 {
  %10 = alloca i32, align 4
  %11 = alloca ptr, align 8
  %12 = alloca ptr, align 8
  %13 = alloca ptr, align 8
  %14 = alloca ptr, align 8
  %15 = alloca ptr, align 8
  %16 = alloca ptr, align 8
  %17 = alloca i32, align 4
  %18 = alloca i32, align 4
  %19 = alloca ptr, align 8
  %20 = alloca ptr, align 8
  %21 = alloca i32, align 4
  %22 = alloca i32, align 4
  store ptr %0, ptr %11, align 8, !tbaa !15
  store ptr %1, ptr %12, align 8, !tbaa !3
  store ptr %2, ptr %13, align 8, !tbaa !3
  store ptr %3, ptr %14, align 8, !tbaa !3
  store ptr %4, ptr %15, align 8, !tbaa !3
  store ptr %5, ptr %16, align 8, !tbaa !3
  store i32 %6, ptr %17, align 4, !tbaa !13
  store i32 %7, ptr %18, align 4, !tbaa !13
  store ptr %8, ptr %19, align 8, !tbaa !3
  call void @llvm.lifetime.start.p0(i64 8, ptr %20) #8
  call void @llvm.lifetime.start.p0(i64 4, ptr %21) #8
  %23 = load ptr, ptr %11, align 8, !tbaa !15
  %24 = call i32 @arkStep_AccessStepMem(ptr noundef %23, ptr noundef @__func__.arkStep_AttachMasssol, ptr noundef %20)
  store i32 %24, ptr %21, align 4, !tbaa !13
  %25 = load i32, ptr %21, align 4, !tbaa !13
  %26 = icmp ne i32 %25, 0
  br i1 %26, label %27, label %29

27:                                               ; preds = %9
  %28 = load i32, ptr %21, align 4, !tbaa !13
  store i32 %28, ptr %10, align 4
  store i32 1, ptr %22, align 4
  br label %70

29:                                               ; preds = %9
  %30 = load ptr, ptr %20, align 8, !tbaa !17
  %31 = getelementptr inbounds nuw %struct.ARKodeARKStepMemRec, ptr %30, i32 0, i32 51
  %32 = load ptr, ptr %31, align 8, !tbaa !99
  %33 = icmp ne ptr %32, null
  br i1 %33, label %34, label %40

34:                                               ; preds = %29
  %35 = load ptr, ptr %20, align 8, !tbaa !17
  %36 = getelementptr inbounds nuw %struct.ARKodeARKStepMemRec, ptr %35, i32 0, i32 51
  %37 = load ptr, ptr %36, align 8, !tbaa !99
  %38 = load ptr, ptr %11, align 8, !tbaa !15
  %39 = call i32 %37(ptr noundef %38)
  br label %40

40:                                               ; preds = %34, %29
  %41 = load ptr, ptr %12, align 8, !tbaa !3
  %42 = load ptr, ptr %20, align 8, !tbaa !17
  %43 = getelementptr inbounds nuw %struct.ARKodeARKStepMemRec, ptr %42, i32 0, i32 47
  store ptr %41, ptr %43, align 8, !tbaa !95
  %44 = load ptr, ptr %13, align 8, !tbaa !3
  %45 = load ptr, ptr %20, align 8, !tbaa !17
  %46 = getelementptr inbounds nuw %struct.ARKodeARKStepMemRec, ptr %45, i32 0, i32 48
  store ptr %44, ptr %46, align 8, !tbaa !96
  %47 = load ptr, ptr %14, align 8, !tbaa !3
  %48 = load ptr, ptr %20, align 8, !tbaa !17
  %49 = getelementptr inbounds nuw %struct.ARKodeARKStepMemRec, ptr %48, i32 0, i32 49
  store ptr %47, ptr %49, align 8, !tbaa !97
  %50 = load ptr, ptr %15, align 8, !tbaa !3
  %51 = load ptr, ptr %20, align 8, !tbaa !17
  %52 = getelementptr inbounds nuw %struct.ARKodeARKStepMemRec, ptr %51, i32 0, i32 50
  store ptr %50, ptr %52, align 8, !tbaa !98
  %53 = load ptr, ptr %16, align 8, !tbaa !3
  %54 = load ptr, ptr %20, align 8, !tbaa !17
  %55 = getelementptr inbounds nuw %struct.ARKodeARKStepMemRec, ptr %54, i32 0, i32 51
  store ptr %53, ptr %55, align 8, !tbaa !99
  %56 = load ptr, ptr %19, align 8, !tbaa !3
  %57 = load ptr, ptr %20, align 8, !tbaa !17
  %58 = getelementptr inbounds nuw %struct.ARKodeARKStepMemRec, ptr %57, i32 0, i32 52
  store ptr %56, ptr %58, align 8, !tbaa !100
  %59 = load i32, ptr %17, align 4, !tbaa !13
  %60 = icmp ne i32 %59, 0
  %61 = select i1 %60, i32 2, i32 1
  %62 = load ptr, ptr %20, align 8, !tbaa !17
  %63 = getelementptr inbounds nuw %struct.ARKodeARKStepMemRec, ptr %62, i32 0, i32 53
  store i32 %61, ptr %63, align 8, !tbaa !101
  %64 = load i32, ptr %18, align 4, !tbaa !13
  %65 = load ptr, ptr %20, align 8, !tbaa !17
  %66 = getelementptr inbounds nuw %struct.ARKodeARKStepMemRec, ptr %65, i32 0, i32 54
  store i32 %64, ptr %66, align 4, !tbaa !102
  %67 = load ptr, ptr %14, align 8, !tbaa !3
  %68 = load ptr, ptr %11, align 8, !tbaa !15
  %69 = getelementptr inbounds nuw %struct.ARKodeMemRec, ptr %68, i32 0, i32 70
  store ptr %67, ptr %69, align 8, !tbaa !32
  store i32 0, ptr %10, align 4
  store i32 1, ptr %22, align 4
  br label %70

70:                                               ; preds = %40, %27
  call void @llvm.lifetime.end.p0(i64 4, ptr %21) #8
  call void @llvm.lifetime.end.p0(i64 8, ptr %20) #8
  %71 = load i32, ptr %10, align 4
  ret i32 %71
}