; Function Attrs: nounwind uwtable
define range(i32 -21, 1) i32 @arkStep_AttachMasssol(ptr noundef %0, ptr noundef %1, ptr noundef %2, ptr noundef %3, ptr noundef %4, ptr noundef %5, i32 noundef %6, i32 noundef %7, ptr noundef %8) #0 {
  %10 = getelementptr inbounds nuw i8, ptr %0, i64 136
  %11 = load ptr, ptr %10, align 8, !tbaa !77
  %12 = icmp eq ptr %11, null
  br i1 %12, label %arkStep_AccessStepMem.exit, label %13

arkStep_AccessStepMem.exit:                       ; preds = %9
  tail call void (ptr, i32, i32, ptr, ptr, ptr, ...) @arkProcessError(ptr noundef nonnull %0, i32 noundef -21, i32 noundef 2165, ptr noundef nonnull @__func__.arkStep_AttachMasssol, ptr noundef nonnull @.str, ptr noundef nonnull @.str.57) #13
  br label %28

13:                                               ; preds = %9
  %14 = getelementptr inbounds nuw i8, ptr %11, i64 360
  %15 = load ptr, ptr %14, align 8, !tbaa !104
  %.not16 = icmp eq ptr %15, null
  br i1 %.not16, label %18, label %16

16:                                               ; preds = %13
  %17 = tail call i32 %15(ptr noundef nonnull %0) #13
  br label %18

18:                                               ; preds = %16, %13
  %19 = getelementptr inbounds nuw i8, ptr %11, i64 328
  store ptr %1, ptr %19, align 8, !tbaa !105
  %20 = getelementptr inbounds nuw i8, ptr %11, i64 336
  store ptr %2, ptr %20, align 8, !tbaa !106
  %21 = getelementptr inbounds nuw i8, ptr %11, i64 344
  store ptr %3, ptr %21, align 8, !tbaa !107
  %22 = getelementptr inbounds nuw i8, ptr %11, i64 352
  store ptr %4, ptr %22, align 8, !tbaa !108
  store ptr %5, ptr %14, align 8, !tbaa !104
  %23 = getelementptr inbounds nuw i8, ptr %11, i64 368
  store ptr %8, ptr %23, align 8, !tbaa !109
  %.not17 = icmp eq i32 %6, 0
  %24 = select i1 %.not17, i32 1, i32 2
  %25 = getelementptr inbounds nuw i8, ptr %11, i64 376
  store i32 %24, ptr %25, align 8, !tbaa !110
  %26 = getelementptr inbounds nuw i8, ptr %11, i64 380
  store i32 %7, ptr %26, align 4, !tbaa !92
  %27 = getelementptr inbounds nuw i8, ptr %0, i64 544
  store ptr %3, ptr %27, align 8, !tbaa !35
  br label %28

28:                                               ; preds = %arkStep_AccessStepMem.exit, %18
  %.0 = phi i32 [ 0, %18 ], [ -21, %arkStep_AccessStepMem.exit ]
  ret i32 %.0
}